target datalayout = "e-m:e-p270:32:32-p271:32:32-p272:64:64-i64:64-i128:128-f80:128-n8:16:32:64-S128"
target triple = "x86_64-pc-linux-gnu"

%"class.llvm::SmallVectorBase" = type { ptr, i32, i32 }
%"struct.llvm::pointee_iterator" = type { %"class.llvm::iterator_adaptor_base" }
%"class.llvm::iterator_adaptor_base" = type { ptr }
%"class.clang::driver::JobList" = type { %"class.llvm::SmallVector.161" }
%"class.llvm::SmallVector.161" = type { %"class.llvm::SmallVectorImpl.162", %"struct.llvm::SmallVectorStorage.165" }
%"class.llvm::SmallVectorImpl.162" = type { %"class.llvm::SmallVectorTemplateBase.163" }
%"class.llvm::SmallVectorTemplateBase.163" = type { %"class.llvm::SmallVectorTemplateCommon.164" }
%"class.llvm::SmallVectorTemplateCommon.164" = type { %"class.llvm::SmallVectorBase" }
%"struct.llvm::SmallVectorStorage.165" = type { [32 x i8] }
%"class.std::unique_ptr.170" = type { %"struct.std::__uniq_ptr_data.171" }
%"struct.std::__uniq_ptr_data.171" = type { %"class.std::__uniq_ptr_impl.172" }
%"class.std::__uniq_ptr_impl.172" = type { %"class.std::tuple.173" }
%"class.std::tuple.173" = type { %"struct.std::_Tuple_impl.174" }
%"struct.std::_Tuple_impl.174" = type { %"struct.std::_Head_base.177" }
%"struct.std::_Head_base.177" = type { ptr }

; Function Attrs: mustprogress nounwind uwtable
define linkonce_odr hidden noundef nonnull align 8 dereferenceable(8) ptr @_ZNSt10_Head_baseILm0EPN5clang6driver7CommandELb0EE7_M_headERKS4_(ptr noundef nonnull align 8 dereferenceable(8) %0) #0 comdat align 2 {
  %2 = alloca ptr, align 8
  store ptr %0, ptr %2, align 8
  %3 = load ptr, ptr %2, align 8
  %4 = getelementptr inbounds nuw %"struct.std::_Head_base.177", ptr %3, i32 0, i32 0
  ret ptr %4
}

; Function Attrs: mustprogress nounwind uwtable
define linkonce_odr hidden noundef nonnull align 8 dereferenceable(8) ptr @_ZNSt11_Tuple_implILm0EJPN5clang6driver7CommandESt14default_deleteIS2_EEE7_M_headERKS6_(ptr noundef nonnull align 8 dereferenceable(8) %0) #0 comdat align 2 {
  %2 = alloca ptr, align 8
  store ptr %0, ptr %2, align 8
  %3 = load ptr, ptr %2, align 8
  %4 = call noundef nonnull align 8 dereferenceable(8) ptr @_ZNSt10_Head_baseILm0EPN5clang6driver7CommandELb0EE7_M_headERKS4_(ptr noundef nonnull align 8 dereferenceable(8) %3) #9
  ret ptr %4
}

; Function Attrs: mustprogress nounwind uwtable
define linkonce_odr noundef nonnull align 8 dereferenceable(8) ptr @_ZSt12__get_helperILm0EPN5clang6driver7CommandEJSt14default_deleteIS2_EEERKT0_RKSt11_Tuple_implIXT_EJS6_DpT1_EE(ptr noundef nonnull align 8 dereferenceable(8) %0) #0 comdat {
  %2 = alloca ptr, align 8
  store ptr %0, ptr %2, align 8
  %3 = load ptr, ptr %2, align 8
  %4 = call noundef nonnull align 8 dereferenceable(8) ptr @_ZNSt11_Tuple_implILm0EJPN5clang6driver7CommandESt14default_deleteIS2_EEE7_M_headERKS6_(ptr noundef nonnull align 8 dereferenceable(8) %3) #9
  ret ptr %4
}

; Function Attrs: mustprogress nounwind uwtable
define linkonce_odr noundef nonnull align 8 dereferenceable(8) ptr @_ZSt3getILm0EJPN5clang6driver7CommandESt14default_deleteIS2_EEERKNSt13tuple_elementIXT_ESt5tupleIJDpT0_EEE4typeERKSA_(ptr noundef nonnull align 8 dereferenceable(8) %0) #0 comdat {
  %2 = alloca ptr, align 8
  store ptr %0, ptr %2, align 8
  %3 = load ptr, ptr %2, align 8
  %4 = call noundef nonnull align 8 dereferenceable(8) ptr @_ZSt12__get_helperILm0EPN5clang6driver7CommandEJSt14default_deleteIS2_EEERKT0_RKSt11_Tuple_implIXT_EJS6_DpT1_EE(ptr noundef nonnull align 8 dereferenceable(8) %3) #9
  ret ptr %4
}

; Function Attrs: mustprogress nounwind uwtable
define linkonce_odr hidden noundef ptr @_ZNKSt15__uniq_ptr_implIN5clang6driver7CommandESt14default_deleteIS2_EE6_M_ptrEv(ptr noundef nonnull align 8 dereferenceable(8) %0) #0 comdat align 2 {
  %2 = alloca ptr, align 8
  store ptr %0, ptr %2, align 8
  %3 = load ptr, ptr %2, align 8
  %4 = getelementptr inbounds nuw %"class.std::__uniq_ptr_impl.172", ptr %3, i32 0, i32 0
  %5 = call noundef nonnull align 8 dereferenceable(8) ptr @_ZSt3getILm0EJPN5clang6driver7CommandESt14default_deleteIS2_EEERKNSt13tuple_elementIXT_ESt5tupleIJDpT0_EEE4typeERKSA_(ptr noundef nonnull align 8 dereferenceable(8) %4) #9
  %6 = load ptr, ptr %5, align 8
  ret ptr %6
}

; Function Attrs: mustprogress nounwind uwtable
define linkonce_odr hidden noundef ptr @_ZNKSt10unique_ptrIN5clang6driver7CommandESt14default_deleteIS2_EE3getEv(ptr noundef nonnull align 8 dereferenceable(8) %0) #0 comdat align 2 {
  %2 = alloca ptr, align 8
  store ptr %0, ptr %2, align 8
  %3 = load ptr, ptr %2, align 8
  %4 = getelementptr inbounds nuw %"class.std::unique_ptr.170", ptr %3, i32 0, i32 0
  %5 = call noundef ptr @_ZNKSt15__uniq_ptr_implIN5clang6driver7CommandESt14default_deleteIS2_EE6_M_ptrEv(ptr noundef nonnull align 8 dereferenceable(8) %4) #9
  ret ptr %5
}

; Function Attrs: mustprogress nounwind uwtable
define linkonce_odr hidden void @_ZN4llvm21iterator_adaptor_baseINS_16pointee_iteratorIPKSt10unique_ptrIN5clang6driver7CommandESt14default_deleteIS5_EES5_EESA_St26random_access_iterator_tagS5_lPS5_RS5_EC2ESA_(ptr noundef nonnull align 8 dereferenceable(8) %0, ptr noundef %1) unnamed_addr #0 comdat align 2 {
  %3 = alloca ptr, align 8
  %4 = alloca ptr, align 8
  store ptr %0, ptr %3, align 8
  store ptr %1, ptr %4, align 8
  %5 = load ptr, ptr %3, align 8
  %6 = getelementptr inbounds nuw %"class.llvm::iterator_adaptor_base", ptr %5, i32 0, i32 0
  %7 = load ptr, ptr %4, align 8
  store ptr %7, ptr %6, align 8
  ret void
}

; Function Attrs: mustprogress nounwind uwtable
define linkonce_odr hidden noundef nonnull align 8 dereferenceable(514) ptr @_ZNKSt10unique_ptrIN5clang6driver7CommandESt14default_deleteIS2_EEdeEv(ptr noundef nonnull align 8 dereferenceable(8) %0) #0 comdat align 2 {
  %2 = alloca ptr, align 8
  store ptr %0, ptr %2, align 8
  %3 = load ptr, ptr %2, align 8
  br label %4

4:                                                ; preds = %1
  br label %5

5:                                                ; preds = %4
  %6 = call noundef ptr @_ZNKSt10unique_ptrIN5clang6driver7CommandESt14default_deleteIS2_EE3getEv(ptr noundef nonnull align 8 dereferenceable(8) %3) #9
  ret ptr %6
}

; Function Attrs: mustprogress nounwind uwtable
define linkonce_odr hidden noundef zeroext i1 @_ZN4llvmeqERKNS_21iterator_adaptor_baseINS_16pointee_iteratorIPKSt10unique_ptrIN5clang6driver7CommandESt14default_deleteIS5_EES5_EESA_St26random_access_iterator_tagS5_lPS5_RS5_EESH_(ptr noundef nonnull align 8 dereferenceable(8) %0, ptr noundef nonnull align 8 dereferenceable(8) %1) #0 comdat {
  %3 = alloca ptr, align 8
  %4 = alloca ptr, align 8
  store ptr %0, ptr %3, align 8
  store ptr %1, ptr %4, align 8
  %5 = load ptr, ptr %3, align 8
  %6 = getelementptr inbounds nuw %"class.llvm::iterator_adaptor_base", ptr %5, i32 0, i32 0
  %7 = load ptr, ptr %6, align 8
  %8 = load ptr, ptr %4, align 8
  %9 = getelementptr inbounds nuw %"class.llvm::iterator_adaptor_base", ptr %8, i32 0, i32 0
  %10 = load ptr, ptr %9, align 8
  %11 = icmp eq ptr %7, %10
  ret i1 %11
}

; Function Attrs: mustprogress nounwind uwtable
define linkonce_odr hidden noundef ptr @_ZNK4llvm25SmallVectorTemplateCommonISt10unique_ptrIN5clang6driver7CommandESt14default_deleteIS4_EEvE3endEv(ptr noundef nonnull align 8 dereferenceable(16) %0) #0 comdat align 2 {
  %2 = alloca ptr, align 8
  store ptr %0, ptr %2, align 8
  %3 = load ptr, ptr %2, align 8
  %4 = call noundef ptr @_ZNK4llvm25SmallVectorTemplateCommonISt10unique_ptrIN5clang6driver7CommandESt14default_deleteIS4_EEvE5beginEv(ptr noundef nonnull align 8 dereferenceable(16) %3)
  %5 = call noundef i64 @_ZNK4llvm15SmallVectorBaseIjE4sizeEv(ptr noundef nonnull align 8 dereferenceable(16) %3)
  %6 = getelementptr inbounds %"class.std::unique_ptr.170", ptr %4, i64 %5
  ret ptr %6
}

; Function Attrs: mustprogress nounwind uwtable
define linkonce_odr hidden void @_ZN4llvm16pointee_iteratorIPKSt10unique_ptrIN5clang6driver7CommandESt14default_deleteIS4_EES4_EC2IS9_EEOT_(ptr noundef nonnull align 8 dereferenceable(8) %0, ptr noundef nonnull align 8 dereferenceable(8) %1) unnamed_addr #0 comdat align 2 {
  %3 = alloca ptr, align 8
  %4 = alloca ptr, align 8
  store ptr %0, ptr %3, align 8
  store ptr %1, ptr %4, align 8
  %5 = load ptr, ptr %3, align 8
  %6 = load ptr, ptr %4, align 8
  %7 = load ptr, ptr %6, align 8
  call void @_ZN4llvm21iterator_adaptor_baseINS_16pointee_iteratorIPKSt10unique_ptrIN5clang6driver7CommandESt14default_deleteIS5_EES5_EESA_St26random_access_iterator_tagS5_lPS5_RS5_EC2ESA_(ptr noundef nonnull align 8 dereferenceable(8) %5, ptr noundef %7)
  ret void
}

; Function Attrs: mustprogress nounwind uwtable
define linkonce_odr hidden noundef ptr @_ZNK4llvm25SmallVectorTemplateCommonISt10unique_ptrIN5clang6driver7CommandESt14default_deleteIS4_EEvE5beginEv(ptr noundef nonnull align 8 dereferenceable(16) %0) #0 comdat align 2 {
  %2 = alloca ptr, align 8
  store ptr %0, ptr %2, align 8
  %3 = load ptr, ptr %2, align 8
  %4 = getelementptr inbounds nuw %"class.llvm::SmallVectorBase", ptr %3, i32 0, i32 0
  %5 = load ptr, ptr %4, align 8
  ret ptr %5
}

; Function Attrs: mustprogress nounwind uwtable
define linkonce_odr hidden noundef nonnull align 8 dereferenceable(8) ptr @_ZN4llvm21iterator_adaptor_baseINS_16pointee_iteratorIPKSt10unique_ptrIN5clang6driver7CommandESt14default_deleteIS5_EES5_EESA_St26random_access_iterator_tagS5_lPS5_RS5_EppEv(ptr noundef nonnull align 8 dereferenceable(8) %0) #0 comdat align 2 {
  %2 = alloca ptr, align 8
  store ptr %0, ptr %2, align 8
  %3 = load ptr, ptr %2, align 8
  %4 = getelementptr inbounds nuw %"class.llvm::iterator_adaptor_base", ptr %3, i32 0, i32 0
  %5 = load ptr, ptr %4, align 8
  %6 = getelementptr inbounds %"class.std::unique_ptr.170", ptr %5, i32 1
  store ptr %6, ptr %4, align 8
  ret ptr %3
}

; Function Attrs: mustprogress nounwind uwtable
define linkonce_odr hidden noundef nonnull align 8 dereferenceable(514) ptr @_ZNK4llvm16pointee_iteratorIPKSt10unique_ptrIN5clang6driver7CommandESt14default_deleteIS4_EES4_EdeEv(ptr noundef nonnull align 8 dereferenceable(8) %0) #0 comdat align 2 {
  %2 = alloca ptr, align 8
  store ptr %0, ptr %2, align 8
  %3 = load ptr, ptr %2, align 8
  %4 = getelementptr inbounds nuw %"class.llvm::iterator_adaptor_base", ptr %3, i32 0, i32 0
  %5 = load ptr, ptr %4, align 8
  %6 = call noundef nonnull align 8 dereferenceable(514) ptr @_ZNKSt10unique_ptrIN5clang6driver7CommandESt14default_deleteIS2_EEdeEv(ptr noundef nonnull align 8 dereferenceable(8) %5) #9
  ret ptr %6
}

; Function Attrs: mustprogress nounwind uwtable
define linkonce_odr hidden noundef zeroext i1 @_ZNK4llvm20iterator_facade_baseINS_16pointee_iteratorIPKSt10unique_ptrIN5clang6driver7CommandESt14default_deleteIS5_EES5_EESt26random_access_iterator_tagS5_lPS5_RS5_EneERKSB_(ptr noundef nonnull align 1 dereferenceable(1) %0, ptr noundef nonnull align 8 dereferenceable(8) %1) #0 comdat align 2 {
  %3 = alloca ptr, align 8
  %4 = alloca ptr, align 8
  store ptr %0, ptr %3, align 8
  store ptr %1, ptr %4, align 8
  %5 = load ptr, ptr %3, align 8
  %6 = load ptr, ptr %4, align 8
  %7 = call noundef zeroext i1 @_ZN4llvmeqERKNS_21iterator_adaptor_baseINS_16pointee_iteratorIPKSt10unique_ptrIN5clang6driver7CommandESt14default_deleteIS5_EES5_EESA_St26random_access_iterator_tagS5_lPS5_RS5_EESH_(ptr noundef nonnull align 8 dereferenceable(8) %5, ptr noundef nonnull align 8 dereferenceable(8) %6)
  %8 = xor i1 %7, true
  ret i1 %8
}

; Function Attrs: mustprogress nounwind uwtable
define linkonce_odr hidden ptr @_ZNK5clang6driver7JobList3endEv(ptr noundef nonnull align 8 dereferenceable(48) %0) #0 comdat align 2 {
  %2 = alloca %"struct.llvm::pointee_iterator", align 8
  %3 = alloca ptr, align 8
  %4 = alloca ptr, align 8
  store ptr %0, ptr %3, align 8
  %5 = load ptr, ptr %3, align 8
  %6 = getelementptr inbounds nuw %"class.clang::driver::JobList", ptr %5, i32 0, i32 0
  %7 = call noundef ptr @_ZNK4llvm25SmallVectorTemplateCommonISt10unique_ptrIN5clang6driver7CommandESt14default_deleteIS4_EEvE3endEv(ptr noundef nonnull align 8 dereferenceable(16) %6)
  store ptr %7, ptr %4, align 8
  call void @_ZN4llvm16pointee_iteratorIPKSt10unique_ptrIN5clang6driver7CommandESt14default_deleteIS4_EES4_EC2IS9_EEOT_(ptr noundef nonnull align 8 dereferenceable(8) %2, ptr noundef nonnull align 8 dereferenceable(8) %4)
  %8 = getelementptr inbounds nuw %"struct.llvm::pointee_iterator", ptr %2, i32 0, i32 0
  %9 = getelementptr inbounds nuw %"class.llvm::iterator_adaptor_base", ptr %8, i32 0, i32 0
  %10 = load ptr, ptr %9, align 8
  ret ptr %10
}

; Function Attrs: mustprogress nounwind uwtable
define linkonce_odr hidden ptr @_ZNK5clang6driver7JobList5beginEv(ptr noundef nonnull align 8 dereferenceable(48) %0) #0 comdat align 2 {
  %2 = alloca %"struct.llvm::pointee_iterator", align 8
  %3 = alloca ptr, align 8
  %4 = alloca ptr, align 8
  store ptr %0, ptr %3, align 8
  %5 = load ptr, ptr %3, align 8
  %6 = getelementptr inbounds nuw %"class.clang::driver::JobList", ptr %5, i32 0, i32 0
  %7 = call noundef ptr @_ZNK4llvm25SmallVectorTemplateCommonISt10unique_ptrIN5clang6driver7CommandESt14default_deleteIS4_EEvE5beginEv(ptr noundef nonnull align 8 dereferenceable(16) %6)
  store ptr %7, ptr %4, align 8
  call void @_ZN4llvm16pointee_iteratorIPKSt10unique_ptrIN5clang6driver7CommandESt14default_deleteIS4_EES4_EC2IS9_EEOT_(ptr noundef nonnull align 8 dereferenceable(8) %2, ptr noundef nonnull align 8 dereferenceable(8) %4)
  %8 = getelementptr inbounds nuw %"struct.llvm::pointee_iterator", ptr %2, i32 0, i32 0
  %9 = getelementptr inbounds nuw %"class.llvm::iterator_adaptor_base", ptr %8, i32 0, i32 0
  %10 = load ptr, ptr %9, align 8
  ret ptr %10
}

; Function Attrs: mustprogress nounwind uwtable
define dso_local void @_ZNK5clang6driver7JobList5PrintERN4llvm11raw_ostreamEPKcbPNS0_15CrashReportInfoE(ptr noundef nonnull align 8 dereferenceable(48) %0, ptr noundef nonnull align 8 dereferenceable(48) %1, ptr noundef %2, i1 noundef zeroext %3, ptr noundef %4) #0 align 2 {
  %6 = alloca ptr, align 8
  %7 = alloca ptr, align 8
  %8 = alloca ptr, align 8
  %9 = alloca i8, align 1
  %10 = alloca ptr, align 8
  %11 = alloca ptr, align 8
  %12 = alloca %"struct.llvm::pointee_iterator", align 8
  %13 = alloca %"struct.llvm::pointee_iterator", align 8
  %14 = alloca ptr, align 8
  store ptr %0, ptr %6, align 8
  store ptr %1, ptr %7, align 8
  store ptr %2, ptr %8, align 8
  %15 = zext i1 %3 to i8
  store i8 %15, ptr %9, align 1
  store ptr %4, ptr %10, align 8
  %16 = load ptr, ptr %6, align 8
  store ptr %16, ptr %11, align 8
  %17 = load ptr, ptr %11, align 8
  %18 = call ptr @_ZNK5clang6driver7JobList5beginEv(ptr noundef nonnull align 8 dereferenceable(48) %17)
  %19 = getelementptr inbounds nuw %"struct.llvm::pointee_iterator", ptr %12, i32 0, i32 0
  %20 = getelementptr inbounds nuw %"class.llvm::iterator_adaptor_base", ptr %19, i32 0, i32 0
  store ptr %18, ptr %20, align 8
  %21 = load ptr, ptr %11, align 8
  %22 = call ptr @_ZNK5clang6driver7JobList3endEv(ptr noundef nonnull align 8 dereferenceable(48) %21)
  %23 = getelementptr inbounds nuw %"struct.llvm::pointee_iterator", ptr %13, i32 0, i32 0
  %24 = getelementptr inbounds nuw %"class.llvm::iterator_adaptor_base", ptr %23, i32 0, i32 0
  store ptr %22, ptr %24, align 8
  br label %25

25:                                               ; preds = %38, %5
  %26 = call noundef zeroext i1 @_ZNK4llvm20iterator_facade_baseINS_16pointee_iteratorIPKSt10unique_ptrIN5clang6driver7CommandESt14default_deleteIS5_EES5_EESt26random_access_iterator_tagS5_lPS5_RS5_EneERKSB_(ptr noundef nonnull align 1 dereferenceable(1) %12, ptr noundef nonnull align 8 dereferenceable(8) %13)
  br i1 %26, label %27, label %40

27:                                               ; preds = %25
  %28 = call noundef nonnull align 8 dereferenceable(514) ptr @_ZNK4llvm16pointee_iteratorIPKSt10unique_ptrIN5clang6driver7CommandESt14default_deleteIS4_EES4_EdeEv(ptr noundef nonnull align 8 dereferenceable(8) %12)
  store ptr %28, ptr %14, align 8
  %29 = load ptr, ptr %14, align 8
  %30 = load ptr, ptr %7, align 8
  %31 = load ptr, ptr %8, align 8
  %32 = load i8, ptr %9, align 1
  %33 = trunc i8 %32 to i1
  %34 = load ptr, ptr %10, align 8
  %35 = load ptr, ptr %29, align 8
  %36 = getelementptr inbounds ptr, ptr %35, i64 2
  %37 = load ptr, ptr %36, align 8
  call void %37(ptr noundef nonnull align 8 dereferenceable(514) %29, ptr noundef nonnull align 8 dereferenceable(48) %30, ptr noundef %31, i1 noundef zeroext %33, ptr noundef %34)
  br label %38

38:                                               ; preds = %27
  %39 = call noundef nonnull align 8 dereferenceable(8) ptr @_ZN4llvm21iterator_adaptor_baseINS_16pointee_iteratorIPKSt10unique_ptrIN5clang6driver7CommandESt14default_deleteIS5_EES5_EESA_St26random_access_iterator_tagS5_lPS5_RS5_EppEv(ptr noundef nonnull align 8 dereferenceable(8) %12)
  br label %25

40:                                               ; preds = %25
  ret void
}