; Function Attrs: mustprogress nounwind uwtable
define dso_local void @_ZNK5clang6driver7JobList5PrintERN4llvm11raw_ostreamEPKcbPNS0_15CrashReportInfoE(ptr noundef nonnull align 8 dereferenceable(48) %0, ptr noundef nonnull align 8 dereferenceable(48) %1, ptr noundef %2, i1 noundef zeroext %3, ptr noundef %4) local_unnamed_addr #0 align 2 {
  %6 = load ptr, ptr %0, align 8
  %7 = tail call noundef i64 @_ZNK4llvm15SmallVectorBaseIjE4sizeEv(ptr noundef nonnull align 8 dereferenceable(16) %0) #14
  %8 = getelementptr inbounds %"class.std::unique_ptr.170", ptr %6, i64 %7
  %.not10 = icmp eq i64 %7, 0
  br i1 %.not10, label %._crit_edge, label %.lr.ph

.lr.ph:                                           ; preds = %5, %.lr.ph
  %.sroa.07.011 = phi ptr [ %13, %.lr.ph ], [ %6, %5 ]
  %9 = load ptr, ptr %.sroa.07.011, align 8
  %10 = load ptr, ptr %9, align 8
  %11 = getelementptr inbounds i8, ptr %10, i64 16
  %12 = load ptr, ptr %11, align 8
  tail call void %12(ptr noundef nonnull align 8 dereferenceable(514) %9, ptr noundef nonnull align 8 dereferenceable(48) %1, ptr noundef %2, i1 noundef zeroext %3, ptr noundef %4) #14
  %13 = getelementptr inbounds i8, ptr %.sroa.07.011, i64 8
  %.not = icmp eq ptr %13, %8
  br i1 %.not, label %._crit_edge, label %.lr.ph

._crit_edge:                                      ; preds = %.lr.ph, %5
  ret void
}